; Function Attrs: nounwind uwtable
define void @dt_camctl_camera_set_property_toggle(ptr noundef readonly captures(none) %0, ptr noundef %1, ptr noundef %2) local_unnamed_addr #0 {
  %.not = icmp eq ptr %1, null
  br i1 %.not, label %4, label %16

4:                                                ; preds = %3
  %5 = getelementptr inbounds nuw i8, ptr %0, i64 144
  %6 = load ptr, ptr %5, align 8, !tbaa !6
  %7 = icmp eq ptr %6, null
  br i1 %7, label %8, label %16

8:                                                ; preds = %4
  %9 = getelementptr inbounds nuw i8, ptr %0, i64 136
  %10 = load ptr, ptr %9, align 8, !tbaa !61
  %11 = icmp eq ptr %10, null
  br i1 %11, label %12, label %16

12:                                               ; preds = %8
  %13 = load i32, ptr getelementptr inbounds nuw (i8, ptr @darktable, i64 8), align 8, !tbaa !19
  %14 = and i32 %13, 32
  %.not14 = icmp eq i32 %14, 0
  br i1 %.not14, label %26, label %15

15:                                               ; preds = %12
  tail call void (ptr, ...) @dt_print_ext(ptr noundef nonnull @.str.26) #15
  br label %26

16:                                               ; preds = %8, %4, %3
  %.0 = phi ptr [ %1, %3 ], [ %10, %8 ], [ %6, %4 ]
  %17 = tail call noalias dereferenceable_or_null(16) ptr @g_malloc(i64 noundef 16) #16
  store i32 6, ptr %17, align 8, !tbaa !202
  %18 = tail call noalias ptr @g_strdup(ptr noundef %2) #15
  %19 = getelementptr inbounds nuw i8, ptr %17, i64 8
  store ptr %18, ptr %19, align 8, !tbaa !192
  %20 = getelementptr inbounds nuw i8, ptr %.0, i64 32888
  %21 = tail call i32 @pthread_mutex_lock(ptr noundef nonnull %20) #15
  %22 = getelementptr inbounds nuw i8, ptr %.0, i64 32928
  %23 = load ptr, ptr %22, align 8, !tbaa !66
  %24 = tail call ptr @g_list_append(ptr noundef %23, ptr noundef nonnull %17) #15
  store ptr %24, ptr %22, align 8, !tbaa !66
  %25 = tail call i32 @pthread_mutex_unlock(ptr noundef nonnull %20) #15
  br label %26

26:                                               ; preds = %12, %15, %16
  ret void
}